; Function Attrs: mustprogress uwtable
define noundef i64 @_ZNK7rocksdb19MemTableListVersion25GetEarliestSequenceNumberEb(ptr noundef nonnull readonly align 8 dereferenceable(88) %0, i1 noundef zeroext %1) local_unnamed_addr #4 align 2 personality ptr @__gxx_personality_v0 {
  %3 = getelementptr inbounds nuw i8, ptr %0, i64 24
  %4 = load ptr, ptr %3, align 8
  %5 = icmp ne ptr %4, %3
  %or.cond.not = select i1 %1, i1 %5, i1 false
  br i1 %or.cond.not, label %.sink.split, label %6

6:                                                ; preds = %2
  %7 = load ptr, ptr %0, align 8, !tbaa !18
  %8 = icmp eq ptr %7, %0
  br i1 %8, label %17, label %.sink.split

.sink.split:                                      ; preds = %6, %2
  %.sink = phi i64 [ 32, %2 ], [ 8, %6 ]
  %9 = getelementptr inbounds nuw i8, ptr %0, i64 %.sink
  %10 = load ptr, ptr %9, align 8, !tbaa !98
  %11 = getelementptr inbounds nuw i8, ptr %10, i64 16
  %12 = load ptr, ptr %11, align 8, !tbaa !21
  %13 = load ptr, ptr %12, align 8, !tbaa !27
  %14 = getelementptr inbounds nuw i8, ptr %13, i64 144
  %15 = load ptr, ptr %14, align 8
  %16 = tail call noundef i64 %15(ptr noundef nonnull align 8 dereferenceable(560) %12)
  br label %17

17:                                               ; preds = %.sink.split, %6
  %.0 = phi i64 [ 72057594037927935, %6 ], [ %16, %.sink.split ]
  ret i64 %.0
}